target datalayout = "e-m:e-p270:32:32-p271:32:32-p272:64:64-i64:64-i128:128-f80:128-n8:16:32:64-S128"
target triple = "x86_64-pc-linux-gnu"

%struct.GlobalContext = type { %struct.HTable, ptr, ptr, ptr, ptr, ptr, ptr, ptr, ptr, i8, i32, i32, i32, ptr, ptr, %struct.HTable, %struct.HTable, %struct.Module_, %struct.DeclTable, %struct.DeclTable, %struct.Path_, ptr, ptr, ptr, ptr, ptr, ptr, ptr, [65536 x ptr], ptr, ptr, ptr }
%struct.HTable = type { i32, ptr }
%struct.Module_ = type { ptr, ptr, ptr, i16, i32, ptr, %struct.HTable, ptr, ptr, ptr, ptr, ptr, ptr, ptr, ptr, ptr }
%struct.DeclTable = type { i32, i32, i32, ptr }
%struct.Path_ = type { %union.SourceSpan, ptr, i32 }
%union.SourceSpan = type { i64 }
%struct.GenContext_ = type { i8, ptr, ptr, ptr, ptr, ptr, ptr, ptr, ptr, ptr, ptr, ptr, ptr, ptr, ptr, ptr, ptr, ptr, ptr, ptr, ptr, ptr, ptr, ptr, ptr, ptr, ptr, ptr, ptr, ptr, ptr, ptr, ptr, %struct.anon.85, i32, i32, %struct.DebugContext, ptr, ptr, ptr, %struct.BEValue, i8, %union.SourceSpan, ptr, ptr, ptr, ptr }
%struct.anon.85 = type { ptr, ptr, ptr }
%struct.DebugContext = type { i16, ptr, ptr, %struct.DebugFile_, ptr, ptr, ptr, ptr }
%struct.DebugFile_ = type { i16, ptr }
%struct.BEValue = type { i8, i32, ptr, ptr, ptr }
%struct.Decl_ = type { ptr, ptr, %union.SourceSpan, i64, %union.anon, i32, %union.anon.0, i64, ptr, ptr, ptr, %union.anon.1 }
%union.anon = type { ptr }
%union.anon.0 = type { i16 }
%union.anon.1 = type { %struct.FuncDecl }
%struct.FuncDecl = type { i32, [4 x i8], %struct.Signature_, i32, i32, %union.anon.8 }
%struct.Signature_ = type <{ %struct.CalleeAttributes, i16, i8, i32, i32, [4 x i8], ptr }>
%struct.CalleeAttributes = type { i8 }
%union.anon.8 = type { %struct.anon.9 }
%struct.anon.9 = type { i16, %union.anon.10 }
%union.anon.10 = type { ptr }

@global_context = external global %struct.GlobalContext, align 8

; Function Attrs: nounwind uwtable
define dso_local void @llvm_emit_function_decl(ptr noundef %0, ptr noundef %1) #0 {
  %3 = alloca ptr, align 8
  %4 = alloca i16, align 2
  %5 = alloca ptr, align 8
  %6 = alloca ptr, align 8
  %7 = alloca ptr, align 8
  store ptr %0, ptr %5, align 8
  store ptr %1, ptr %6, align 8
  %8 = load ptr, ptr %6, align 8
  call void @decl_append_links_to_global(ptr noundef %8)
  %9 = load ptr, ptr %5, align 8
  %10 = load ptr, ptr %6, align 8
  %11 = call ptr @llvm_get_ref(ptr noundef %9, ptr noundef %10)
  store ptr %11, ptr %7, align 8
  %12 = load ptr, ptr %7, align 8
  %13 = load ptr, ptr %6, align 8
  %14 = getelementptr inbounds %struct.Decl_, ptr %13, i32 0, i32 4
  store ptr %12, ptr %14, align 8
  %15 = load ptr, ptr %6, align 8
  %16 = getelementptr inbounds %struct.Decl_, ptr %15, i32 0, i32 6
  %17 = load i16, ptr %16, align 4
  %18 = icmp ne i16 %17, 0
  br i1 %18, label %19, label %39

19:                                               ; preds = %2
  %20 = load ptr, ptr %7, align 8
  %21 = load ptr, ptr %6, align 8
  %22 = getelementptr inbounds %struct.Decl_, ptr %21, i32 0, i32 6
  %23 = load i16, ptr %22, align 4
  store i16 %23, ptr %4, align 2
  %24 = load i16, ptr %4, align 2
  %25 = zext i16 %24 to i32
  %26 = icmp ne i32 %25, 0
  br i1 %26, label %27, label %36

27:                                               ; preds = %19
  %28 = load ptr, ptr getelementptr inbounds (%struct.GlobalContext, ptr @global_context, i32 0, i32 31), align 8
  %29 = load i16, ptr %4, align 2
  %30 = zext i16 %29 to i32
  %31 = sub nsw i32 %30, 1
  %32 = sext i32 %31 to i64
  %33 = getelementptr inbounds ptr, ptr %28, i64 %32
  %34 = load ptr, ptr %33, align 8
  %35 = getelementptr inbounds i8, ptr %34, i64 8
  br label %37

36:                                               ; preds = %19
  br label %37

37:                                               ; preds = %36, %27
  %38 = phi ptr [ %35, %27 ], [ null, %36 ]
  call void @LLVMSetSection(ptr noundef %20, ptr noundef %38)
  br label %39

39:                                               ; preds = %37, %2
  %40 = load ptr, ptr %5, align 8
  store ptr %40, ptr %3, align 8
  %41 = load ptr, ptr %3, align 8
  %42 = getelementptr inbounds %struct.GenContext_, ptr %41, i32 0, i32 36
  %43 = getelementptr inbounds %struct.DebugContext, ptr %42, i32 0, i32 1
  %44 = load ptr, ptr %43, align 8
  %45 = icmp ne ptr %44, null
  br i1 %45, label %46, label %49

46:                                               ; preds = %39
  %47 = load ptr, ptr %5, align 8
  %48 = load ptr, ptr %6, align 8
  call void @llvm_emit_debug_function(ptr noundef %47, ptr noundef %48)
  br label %49

49:                                               ; preds = %46, %39
  %50 = load ptr, ptr %6, align 8
  %51 = getelementptr inbounds %struct.Decl_, ptr %50, i32 0, i32 3
  %52 = load i64, ptr %51, align 8
  %53 = lshr i64 %52, 14
  %54 = and i64 %53, 1
  %55 = trunc i64 %54 to i1
  br i1 %55, label %56, label %71

56:                                               ; preds = %49
  %57 = load ptr, ptr %6, align 8
  %58 = getelementptr inbounds %struct.Decl_, ptr %57, i32 0, i32 3
  %59 = load i64, ptr %58, align 8
  %60 = lshr i64 %59, 21
  %61 = and i64 %60, 1
  %62 = trunc i64 %61 to i1
  br i1 %62, label %63, label %67

63:                                               ; preds = %56
  %64 = load ptr, ptr %7, align 8
  call void @LLVMSetLinkage(ptr noundef %64, i32 noundef 12)
  %65 = load ptr, ptr %5, align 8
  %66 = load ptr, ptr %7, align 8
  call void @llvm_set_comdat(ptr noundef %65, ptr noundef %66)
  br label %69

67:                                               ; preds = %56
  %68 = load ptr, ptr %7, align 8
  call void @LLVMSetLinkage(ptr noundef %68, i32 noundef 0)
  br label %69

69:                                               ; preds = %67, %63
  %70 = load ptr, ptr %7, align 8
  call void @LLVMSetVisibility(ptr noundef %70, i32 noundef 0)
  br label %94

71:                                               ; preds = %49
  %72 = load ptr, ptr %6, align 8
  %73 = call zeroext i1 @decl_is_local(ptr noundef %72)
  br i1 %73, label %74, label %84

74:                                               ; preds = %71
  %75 = load ptr, ptr %7, align 8
  %76 = load ptr, ptr %6, align 8
  %77 = getelementptr inbounds %struct.Decl_, ptr %76, i32 0, i32 3
  %78 = load i64, ptr %77, align 8
  %79 = lshr i64 %78, 21
  %80 = and i64 %79, 1
  %81 = trunc i64 %80 to i1
  %82 = select i1 %81, i32 16, i32 8
  call void @LLVMSetLinkage(ptr noundef %75, i32 noundef %82)
  %83 = load ptr, ptr %7, align 8
  call void @LLVMSetVisibility(ptr noundef %83, i32 noundef 0)
  br label %94

84:                                               ; preds = %71
  %85 = load ptr, ptr %6, align 8
  %86 = getelementptr inbounds %struct.Decl_, ptr %85, i32 0, i32 3
  %87 = load i64, ptr %86, align 8
  %88 = lshr i64 %87, 21
  %89 = and i64 %88, 1
  %90 = trunc i64 %89 to i1
  br i1 %90, label %91, label %94

91:                                               ; preds = %84
  %92 = load ptr, ptr %5, align 8
  %93 = load ptr, ptr %7, align 8
  call void @llvm_set_weak(ptr noundef %92, ptr noundef %93)
  br label %94

94:                                               ; preds = %91, %84, %74, %69
  ret void
}