; Function Attrs: nounwind uwtable
define dso_local void @llvm_emit_function_decl(ptr noundef %0, ptr noundef %1) local_unnamed_addr #0 {
  tail call void @decl_append_links_to_global(ptr noundef %1) #7
  %3 = tail call ptr @llvm_get_ref(ptr noundef %0, ptr noundef %1) #7
  %4 = getelementptr inbounds i8, ptr %1, i64 32
  store ptr %3, ptr %4, align 8
  %5 = getelementptr inbounds i8, ptr %1, i64 44
  %6 = load i16, ptr %5, align 4
  %.not = icmp eq i16 %6, 0
  br i1 %.not, label %15, label %7

7:                                                ; preds = %2
  %8 = load ptr, ptr getelementptr inbounds (%struct.GlobalContext, ptr @global_context, i64 0, i32 31), align 8
  %9 = zext i16 %6 to i64
  %10 = add nuw nsw i64 %9, 4294967295
  %11 = and i64 %10, 4294967295
  %12 = getelementptr inbounds ptr, ptr %8, i64 %11
  %13 = load ptr, ptr %12, align 8
  %14 = getelementptr inbounds i8, ptr %13, i64 8
  tail call void @LLVMSetSection(ptr noundef %3, ptr noundef nonnull %14) #7
  br label %15

15:                                               ; preds = %7, %2
  %16 = getelementptr inbounds i8, ptr %0, i64 304
  %17 = load ptr, ptr %16, align 8
  %.not27 = icmp eq ptr %17, null
  br i1 %.not27, label %19, label %18

18:                                               ; preds = %15
  tail call void @llvm_emit_debug_function(ptr noundef nonnull %0, ptr noundef nonnull %1) #7
  br label %19

19:                                               ; preds = %18, %15
  %20 = getelementptr inbounds i8, ptr %1, i64 24
  %21 = load i64, ptr %20, align 8
  %22 = and i64 %21, 16384
  %.not28 = icmp eq i64 %22, 0
  br i1 %.not28, label %28, label %23

23:                                               ; preds = %19
  %24 = and i64 %21, 2097152
  %.not31 = icmp eq i64 %24, 0
  br i1 %.not31, label %26, label %25

25:                                               ; preds = %23
  tail call void @LLVMSetLinkage(ptr noundef %3, i32 noundef 12) #7
  tail call void @llvm_set_comdat(ptr noundef nonnull %0, ptr noundef %3) #7
  br label %27

26:                                               ; preds = %23
  tail call void @LLVMSetLinkage(ptr noundef %3, i32 noundef 0) #7
  br label %27

27:                                               ; preds = %26, %25
  tail call void @LLVMSetVisibility(ptr noundef %3, i32 noundef 0) #7
  br label %36

28:                                               ; preds = %19
  %29 = tail call zeroext i1 @decl_is_local(ptr noundef nonnull %1) #7
  %30 = load i64, ptr %20, align 8
  %31 = and i64 %30, 2097152
  %.not30 = icmp eq i64 %31, 0
  br i1 %29, label %32, label %34

32:                                               ; preds = %28
  %33 = select i1 %.not30, i32 8, i32 16
  tail call void @LLVMSetLinkage(ptr noundef %3, i32 noundef %33) #7
  tail call void @LLVMSetVisibility(ptr noundef %3, i32 noundef 0) #7
  br label %36

34:                                               ; preds = %28
  br i1 %.not30, label %36, label %35

35:                                               ; preds = %34
  tail call void @llvm_set_weak(ptr noundef nonnull %0, ptr noundef %3) #7
  br label %36

36:                                               ; preds = %35, %34, %32, %27
  ret void
}